(dp0
S'lname'
p1
(lp2
S'Adams'
p3
aS'Nguyen'
p4
aS'Higa'
p5
aS'Trombley'
p6
aS'Blue'
p7
aS'Chappell'
p8
aS'Oliver'
p9
aS'Willingham'
p10
aS'Bailey'
p11
aS'OBrien'
p12
aS'Reigel'
p13
asS'fname'
p14
(lp15
S'Cody'
p16
aS'ThuyVi'
p17
aS'Shawn'
p18
aS'Wyatt'
p19
aS'Jamie'
p20
aS'Geoff'
p21
aS'John'
p22
aS'Travis'
p23
aS'Laura'
p24
aS'Liam'
p25
aS'Sam'
p26
as.